target datalayout = "e-m:e-p270:32:32-p271:32:32-p272:64:64-i64:64-i128:128-f80:128-n8:16:32:64-S128"
target triple = "x86_64-pc-linux-gnu"

@_ZN3tbb6detail2r15arenaC1EPNS1_17threading_controlEjjj = unnamed_addr alias void (ptr, ptr, i32, i32, i32), ptr @_ZN3tbb6detail2r15arenaC2EPNS1_17threading_controlEjjj

; Function Attrs: mustprogress nounwind sspstrong uwtable
define linkonce_odr noundef i32 @_ZN3tbb6detail2r13maxIjEET_RKS3_S5_(ptr noundef nonnull align 4 dereferenceable(4) %0, ptr noundef nonnull align 4 dereferenceable(4) %1) #1 comdat {
  %3 = alloca ptr, align 8
  %4 = alloca ptr, align 8
  store ptr %0, ptr %3, align 8, !tbaa !223
  store ptr %1, ptr %4, align 8, !tbaa !223
  %5 = load ptr, ptr %3, align 8, !tbaa !223
  %6 = load i32, ptr %5, align 4, !tbaa !79
  %7 = load ptr, ptr %4, align 8, !tbaa !223
  %8 = load i32, ptr %7, align 4, !tbaa !79
  %9 = icmp ult i32 %6, %8
  br i1 %9, label %10, label %13

10:                                               ; preds = %2
  %11 = load ptr, ptr %4, align 8, !tbaa !223
  %12 = load i32, ptr %11, align 4, !tbaa !79
  br label %16

13:                                               ; preds = %2
  %14 = load ptr, ptr %3, align 8, !tbaa !223
  %15 = load i32, ptr %14, align 4, !tbaa !79
  br label %16

16:                                               ; preds = %13, %10
  %17 = phi i32 [ %12, %10 ], [ %15, %13 ]
  ret i32 %17
}

; Function Attrs: alwaysinline mustprogress nounwind
define internal ptr @memset.inline(ptr nonnull %0, i32 %1, i64 %2) #8 {
  %4 = alloca ptr, align 8
  %5 = alloca i32, align 4
  %6 = alloca i64, align 8
  store ptr %0, ptr %4, align 8, !tbaa !10
  store i32 %1, ptr %5, align 4, !tbaa !79
  store i64 %2, ptr %6, align 8, !tbaa !99
  %7 = load ptr, ptr %4, align 8, !tbaa !10
  %8 = load i32, ptr %5, align 4, !tbaa !79
  %9 = load i64, ptr %6, align 8, !tbaa !99
  %10 = load ptr, ptr %4, align 8, !tbaa !10
  %11 = call i64 @llvm.objectsize.i64.p0(ptr %10, i1 false, i1 true, i1 false)
  %12 = call ptr @__memset_chk(ptr noundef %7, i32 noundef %8, i64 noundef %9, i64 noundef %11) #12
  ret ptr %12
}

; Function Attrs: mustprogress nounwind sspstrong uwtable
define linkonce_odr noundef i32 @_ZN3tbb6detail2r15arena15allocation_sizeEj(i32 noundef %0) #1 comdat align 2 {
  %2 = alloca i32, align 4
  store i32 %0, ptr %2, align 4, !tbaa !79
  %3 = load i32, ptr %2, align 4, !tbaa !79
  %4 = zext i32 %3 to i64
  %5 = mul i64 %4, 512
  %6 = add i64 512, %5
  %7 = trunc i64 %6 to i32
  ret i32 %7
}

; Function Attrs: mustprogress sspstrong uwtable
define linkonce_odr noundef i32 @_ZN3tbb6detail2r15arena15num_arena_slotsEjj(i32 noundef %0, i32 noundef %1) #2 comdat align 2 {
  %3 = alloca i32, align 4
  %4 = alloca i32, align 4
  %5 = alloca i32, align 4
  store i32 %0, ptr %3, align 4, !tbaa !79
  store i32 %1, ptr %4, align 4, !tbaa !79
  %6 = load i32, ptr %4, align 4, !tbaa !79
  %7 = icmp eq i32 %6, 0
  call void @llvm.lifetime.start.p0(i64 4, ptr %5) #12
  br i1 %7, label %8, label %10

8:                                                ; preds = %2
  %9 = load i32, ptr %3, align 4, !tbaa !79
  br label %12

10:                                               ; preds = %2
  store i32 2, ptr %5, align 4, !tbaa !79
  %11 = call noundef i32 @_ZN3tbb6detail2r13maxIjEET_RKS3_S5_(ptr noundef nonnull align 4 dereferenceable(4) %5, ptr noundef nonnull align 4 dereferenceable(4) %3)
  br label %12

12:                                               ; preds = %10, %8
  %13 = phi i32 [ %9, %8 ], [ %11, %10 ]
  call void @llvm.lifetime.end.p0(i64 4, ptr %5) #12
  ret i32 %13
}

; Function Attrs: mustprogress sspstrong uwtable
define noundef nonnull align 128 dereferenceable(768) ptr @_ZN3tbb6detail2r15arena14allocate_arenaEPNS1_17threading_controlEjjj(ptr noundef %0, i32 noundef %1, i32 noundef %2, i32 noundef %3) #2 align 2 {
  %5 = alloca ptr, align 8
  %6 = alloca i32, align 4
  %7 = alloca i32, align 4
  %8 = alloca i32, align 4
  %9 = alloca i64, align 8
  %10 = alloca ptr, align 8
  store ptr %0, ptr %5, align 8, !tbaa !94
  store i32 %1, ptr %6, align 4, !tbaa !79
  store i32 %2, ptr %7, align 4, !tbaa !79
  store i32 %3, ptr %8, align 4, !tbaa !79
  call void @llvm.lifetime.start.p0(i64 8, ptr %9) #12
  %11 = load i32, ptr %6, align 4, !tbaa !79
  %12 = load i32, ptr %7, align 4, !tbaa !79
  %13 = call noundef i32 @_ZN3tbb6detail2r15arena15num_arena_slotsEjj(i32 noundef %11, i32 noundef %12)
  %14 = call noundef i32 @_ZN3tbb6detail2r15arena15allocation_sizeEj(i32 noundef %13)
  %15 = sext i32 %14 to i64
  store i64 %15, ptr %9, align 8, !tbaa !99
  call void @llvm.lifetime.start.p0(i64 8, ptr %10) #12
  %16 = load i64, ptr %9, align 8, !tbaa !99
  %17 = call noundef ptr @_ZN3tbb6detail2r122cache_aligned_allocateEm(i64 noundef %16)
  store ptr %17, ptr %10, align 8, !tbaa !197
  %18 = load ptr, ptr %10, align 8, !tbaa !197
  %19 = load i64, ptr %9, align 8, !tbaa !99
  %20 = call ptr @memset.inline(ptr noundef %18, i32 noundef 0, i64 noundef %19) #12
  %21 = load ptr, ptr %10, align 8, !tbaa !197
  %22 = load i32, ptr %6, align 4, !tbaa !79
  %23 = load i32, ptr %7, align 4, !tbaa !79
  %24 = call noundef i32 @_ZN3tbb6detail2r15arena15num_arena_slotsEjj(i32 noundef %22, i32 noundef %23)
  %25 = zext i32 %24 to i64
  %26 = mul i64 %25, 128
  %27 = getelementptr inbounds nuw i8, ptr %21, i64 %26
  %28 = load ptr, ptr %5, align 8, !tbaa !94
  %29 = load i32, ptr %6, align 4, !tbaa !79
  %30 = load i32, ptr %7, align 4, !tbaa !79
  %31 = load i32, ptr %8, align 4, !tbaa !79
  call void @_ZN3tbb6detail2r15arenaC1EPNS1_17threading_controlEjjj(ptr noundef nonnull align 128 dereferenceable(768) %27, ptr noundef %28, i32 noundef %29, i32 noundef %30, i32 noundef %31)
  call void @llvm.lifetime.end.p0(i64 8, ptr %10) #12
  call void @llvm.lifetime.end.p0(i64 8, ptr %9) #12
  ret ptr %27
}