; Function Attrs: mustprogress sspstrong uwtable
define noundef nonnull align 128 dereferenceable(768) ptr @_ZN3tbb6detail2r15arena14allocate_arenaEPNS1_17threading_controlEjjj(ptr noundef %0, i32 noundef %1, i32 noundef %2, i32 noundef %3) local_unnamed_addr #1 align 2 {
  %5 = icmp eq i32 %2, 0
  %..i.i = tail call i32 @llvm.umax.i32(i32 %1, i32 2)
  %6 = select i1 %5, i32 %1, i32 %..i.i
  %7 = shl i32 %6, 9
  %8 = add i32 %7, 512
  %9 = sext i32 %8 to i64
  %10 = tail call noundef ptr @_ZN3tbb6detail2r122cache_aligned_allocateEm(i64 noundef %9)
  tail call void @llvm.memset.p0.i64(ptr noundef nonnull align 1 %10, i8 noundef 0, i64 noundef range(i64 -2147483648, 34359738361) %9, i1 noundef false) #13
  %11 = zext i32 %6 to i64
  %12 = shl nuw nsw i64 %11, 7
  %13 = getelementptr inbounds nuw i8, ptr %10, i64 %12
  tail call void @_ZN3tbb6detail2r15arenaC1EPNS1_17threading_controlEjjj(ptr noundef nonnull align 128 dereferenceable(768) %13, ptr noundef %0, i32 noundef %1, i32 noundef %2, i32 noundef %3)
  ret ptr %13
}